target datalayout = "e-m:e-p270:32:32-p271:32:32-p272:64:64-i64:64-i128:128-f80:128-n8:16:32:64-S128"
target triple = "x86_64-pc-linux-gnu"

%"class.base::FilePath" = type { %"class.std::__cxx11::basic_string" }
%"class.std::__cxx11::basic_string" = type { %"struct.std::__cxx11::basic_string<char>::_Alloc_hider", i64, %union.anon }
%"struct.std::__cxx11::basic_string<char>::_Alloc_hider" = type { ptr }
%union.anon = type { i64, [8 x i8] }

; Function Attrs: mustprogress nounwind uwtable
define available_externally noundef ptr @_ZNKSt7__cxx1112basic_stringIcSt11char_traitsIcESaIcEE7_M_dataEv(ptr noundef nonnull align 8 dereferenceable(32) %0) #1 align 2 {
  %2 = alloca ptr, align 8
  store ptr %0, ptr %2, align 8, !tbaa !8
  %3 = load ptr, ptr %2, align 8
  %4 = getelementptr inbounds nuw %"class.std::__cxx11::basic_string", ptr %3, i32 0, i32 0
  %5 = getelementptr inbounds nuw %"struct.std::__cxx11::basic_string<char>::_Alloc_hider", ptr %4, i32 0, i32 0
  %6 = load ptr, ptr %5, align 8, !tbaa !161
  ret ptr %6
}

; Function Attrs: mustprogress nounwind uwtable
define available_externally noundef ptr @_ZNKSt7__cxx1112basic_stringIcSt11char_traitsIcESaIcEE5c_strEv(ptr noundef nonnull align 8 dereferenceable(32) %0) #1 align 2 {
  %2 = alloca ptr, align 8
  store ptr %0, ptr %2, align 8, !tbaa !8
  %3 = load ptr, ptr %2, align 8
  %4 = call noundef ptr @_ZNKSt7__cxx1112basic_stringIcSt11char_traitsIcESaIcEE7_M_dataEv(ptr noundef nonnull align 8 dereferenceable(32) %3)
  ret ptr %4
}

; Function Attrs: mustprogress nounwind uwtable
define linkonce_odr noundef nonnull align 8 dereferenceable(32) ptr @_ZNK4base8FilePath5valueB5cxx11Ev(ptr noundef nonnull align 8 dereferenceable(32) %0) #1 comdat align 2 {
  %2 = alloca ptr, align 8
  store ptr %0, ptr %2, align 8, !tbaa !3
  %3 = load ptr, ptr %2, align 8
  %4 = getelementptr inbounds nuw %"class.base::FilePath", ptr %3, i32 0, i32 0
  ret ptr %4
}

; Function Attrs: mustprogress nounwind uwtable
define linkonce_odr void @_ZN4base18ThreadRestrictions15AssertIOAllowedEv() #1 comdat align 2 {
  ret void
}

; Function Attrs: mustprogress uwtable
define noundef i32 @_ZN4base8ReadFileERKNS_8FilePathEPci(ptr noundef nonnull align 8 dereferenceable(32) %0, ptr noundef %1, i32 noundef %2) #0 {
  %4 = alloca i32, align 4
  %5 = alloca ptr, align 8
  %6 = alloca ptr, align 8
  %7 = alloca i32, align 4
  %8 = alloca i32, align 4
  %9 = alloca i32, align 4
  %10 = alloca i32, align 4
  %11 = alloca i32, align 4
  %12 = alloca i64, align 8
  %13 = alloca i64, align 8
  %14 = alloca i64, align 8
  %15 = alloca i32, align 4
  %16 = alloca i32, align 4
  store ptr %0, ptr %5, align 8, !tbaa !3
  store ptr %1, ptr %6, align 8, !tbaa !12
  store i32 %2, ptr %7, align 4, !tbaa !20
  call void @_ZN4base18ThreadRestrictions15AssertIOAllowedEv()
  call void @llvm.lifetime.start.p0(i64 4, ptr %8) #10
  call void @llvm.lifetime.start.p0(i64 4, ptr %9) #10
  br label %17

17:                                               ; preds = %29, %3
  %18 = load ptr, ptr %5, align 8, !tbaa !3
  %19 = call noundef nonnull align 8 dereferenceable(32) ptr @_ZNK4base8FilePath5valueB5cxx11Ev(ptr noundef nonnull align 8 dereferenceable(32) %18)
  %20 = call noundef ptr @_ZNKSt7__cxx1112basic_stringIcSt11char_traitsIcESaIcEE5c_strEv(ptr noundef nonnull align 8 dereferenceable(32) %19) #10
  %21 = call i32 (ptr, i32, ...) @open(ptr noundef %20, i32 noundef 0)
  store i32 %21, ptr %9, align 4, !tbaa !20
  br label %22

22:                                               ; preds = %17
  %23 = load i32, ptr %9, align 4, !tbaa !20
  %24 = icmp eq i32 %23, -1
  br i1 %24, label %25, label %29

25:                                               ; preds = %22
  %26 = call ptr @__errno_location() #17
  %27 = load i32, ptr %26, align 4, !tbaa !20
  %28 = icmp eq i32 %27, 4
  br label %29

29:                                               ; preds = %25, %22
  %30 = phi i1 [ false, %22 ], [ %28, %25 ]
  br i1 %30, label %17, label %31, !llvm.loop !101

31:                                               ; preds = %29
  %32 = load i32, ptr %9, align 4, !tbaa !20
  store i32 %32, ptr %10, align 4, !tbaa !20
  call void @llvm.lifetime.end.p0(i64 4, ptr %9) #10
  %33 = load i32, ptr %10, align 4, !tbaa !20
  store i32 %33, ptr %8, align 4, !tbaa !20
  %34 = load i32, ptr %8, align 4, !tbaa !20
  %35 = icmp slt i32 %34, 0
  br i1 %35, label %36, label %37

36:                                               ; preds = %31
  store i32 -1, ptr %4, align 4
  store i32 1, ptr %11, align 4
  br label %77

37:                                               ; preds = %31
  call void @llvm.lifetime.start.p0(i64 8, ptr %12) #10
  call void @llvm.lifetime.start.p0(i64 8, ptr %13) #10
  br label %38

38:                                               ; preds = %51, %37
  %39 = load i32, ptr %8, align 4, !tbaa !20
  %40 = load ptr, ptr %6, align 8, !tbaa !12
  %41 = load i32, ptr %7, align 4, !tbaa !20
  %42 = sext i32 %41 to i64
  %43 = call i64 @read(i32 noundef %39, ptr noundef %40, i64 noundef %42)
  store i64 %43, ptr %13, align 8, !tbaa !40
  br label %44

44:                                               ; preds = %38
  %45 = load i64, ptr %13, align 8, !tbaa !40
  %46 = icmp eq i64 %45, -1
  br i1 %46, label %47, label %51

47:                                               ; preds = %44
  %48 = call ptr @__errno_location() #17
  %49 = load i32, ptr %48, align 4, !tbaa !20
  %50 = icmp eq i32 %49, 4
  br label %51

51:                                               ; preds = %47, %44
  %52 = phi i1 [ false, %44 ], [ %50, %47 ]
  br i1 %52, label %38, label %53, !llvm.loop !102

53:                                               ; preds = %51
  %54 = load i64, ptr %13, align 8, !tbaa !40
  store i64 %54, ptr %14, align 8, !tbaa !40
  call void @llvm.lifetime.end.p0(i64 8, ptr %13) #10
  %55 = load i64, ptr %14, align 8, !tbaa !40
  store i64 %55, ptr %12, align 8, !tbaa !40
  call void @llvm.lifetime.start.p0(i64 4, ptr %15) #10
  br label %56

56:                                               ; preds = %53
  %57 = load i32, ptr %8, align 4, !tbaa !20
  %58 = call i32 @close(i32 noundef %57)
  store i32 %58, ptr %15, align 4, !tbaa !20
  %59 = load i32, ptr %15, align 4, !tbaa !20
  %60 = icmp eq i32 %59, -1
  br i1 %60, label %61, label %66

61:                                               ; preds = %56
  %62 = call ptr @__errno_location() #17
  %63 = load i32, ptr %62, align 4, !tbaa !20
  %64 = icmp eq i32 %63, 4
  br i1 %64, label %65, label %66

65:                                               ; preds = %61
  store i32 0, ptr %15, align 4, !tbaa !20
  br label %66

66:                                               ; preds = %65, %61, %56
  br label %67

67:                                               ; preds = %66
  br label %68

68:                                               ; preds = %67
  %69 = load i32, ptr %15, align 4, !tbaa !20
  store i32 %69, ptr %16, align 4, !tbaa !20
  call void @llvm.lifetime.end.p0(i64 4, ptr %15) #10
  %70 = load i32, ptr %16, align 4, !tbaa !20
  %71 = icmp slt i32 %70, 0
  br i1 %71, label %72, label %73

72:                                               ; preds = %68
  store i32 -1, ptr %4, align 4
  store i32 1, ptr %11, align 4
  br label %76

73:                                               ; preds = %68
  %74 = load i64, ptr %12, align 8, !tbaa !40
  %75 = trunc i64 %74 to i32
  store i32 %75, ptr %4, align 4
  store i32 1, ptr %11, align 4
  br label %76

76:                                               ; preds = %73, %72
  call void @llvm.lifetime.end.p0(i64 8, ptr %12) #10
  br label %77

77:                                               ; preds = %76, %36
  call void @llvm.lifetime.end.p0(i64 4, ptr %8) #10
  %78 = load i32, ptr %4, align 4
  ret i32 %78
}