; Function Attrs: mustprogress uwtable
define noundef i32 @_ZN4base8ReadFileERKNS_8FilePathEPci(ptr noundef nonnull readonly align 8 captures(none) dereferenceable(32) %0, ptr noundef captures(none) %1, i32 noundef %2) local_unnamed_addr #0 {
  br label %4

4:                                                ; preds = %8, %3
  %5 = load ptr, ptr %0, align 8, !tbaa !3
  %6 = tail call i32 (ptr, i32, ...) @open(ptr noundef %5, i32 noundef 0)
  %7 = icmp eq i32 %6, -1
  br i1 %7, label %8, label %.critedge

8:                                                ; preds = %4
  %9 = tail call ptr @__errno_location() #25
  %10 = load i32, ptr %9, align 4, !tbaa !11
  %11 = icmp eq i32 %10, 4
  br i1 %11, label %4, label %.critedge.thread, !llvm.loop !87

.critedge:                                        ; preds = %4
  %12 = icmp slt i32 %6, 0
  br i1 %12, label %.critedge.thread, label %.preheader

.preheader:                                       ; preds = %.critedge
  %13 = sext i32 %2 to i64
  br label %14

14:                                               ; preds = %.preheader, %17
  %15 = tail call i64 @read(i32 noundef %6, ptr noundef %1, i64 noundef %13)
  %16 = icmp eq i64 %15, -1
  br i1 %16, label %17, label %.critedge2

17:                                               ; preds = %14
  %18 = tail call ptr @__errno_location() #25
  %19 = load i32, ptr %18, align 4, !tbaa !11
  %20 = icmp eq i32 %19, 4
  br i1 %20, label %14, label %.critedge2, !llvm.loop !88

.critedge2:                                       ; preds = %14, %17
  %21 = tail call i32 @close(i32 noundef %6)
  %22 = icmp eq i32 %21, -1
  br i1 %22, label %23, label %27

23:                                               ; preds = %.critedge2
  %24 = tail call ptr @__errno_location() #25
  %25 = load i32, ptr %24, align 4, !tbaa !11
  %26 = icmp ne i32 %25, 4
  %spec.select = sext i1 %26 to i32
  br label %27

27:                                               ; preds = %23, %.critedge2
  %.018 = phi i32 [ %21, %.critedge2 ], [ %spec.select, %23 ]
  %28 = trunc i64 %15 to i32
  %.inv = icmp sgt i32 %.018, -1
  %.1 = select i1 %.inv, i32 %28, i32 -1
  br label %.critedge.thread

.critedge.thread:                                 ; preds = %8, %.critedge, %27
  %.0 = phi i32 [ %.1, %27 ], [ -1, %.critedge ], [ -1, %8 ]
  ret i32 %.0
}